ccopy_reg
_reconstructor
p0
(csklearn.pipeline
Pipeline
p1
c__builtin__
object
p2
Ntp3
Rp4
(dp5
S'_sklearn_version'
p6
S'0.18.1'
p7
sS'steps'
p8
(lp9
(S'vect'
p10
g0
(csklearn.feature_extraction.text
TfidfVectorizer
p11
g2
Ntp12
Rp13
(dp14
S'decode_error'
p15
S'ignore'
p16
sS'vocabulary'
p17
NsS'encoding'
p18
Vutf-8
p19
sS'token_pattern'
p20
V(?u)\u005cb\u005cw\u005cw+\u005cb
p21
sS'analyzer'
p22
Vword
p23
sS'ngram_range'
p24
(I1
I1
tp25
sS'preprocessor'
p26
NsS'max_df'
p27
F0.95
sS'min_df'
p28
I2
sS'max_features'
p29
I6000
sS'fixed_vocabulary_'
p30
I00
sS'stop_words_'
p31
c__builtin__
set
p32
((lp33
Vvery
p34
aVtext
p35
aVsuper
p36
aVexample
p37
aVanother
p38
atp39
Rp40
sS'binary'
p41
I00
sS'lowercase'
p42
I01
sS'stop_words'
p43
NsS'tokenizer'
p44
NsS'vocabulary_'
p45
(dp46
Vthis
p47
cnumpy.core.multiarray
scalar
p48
(cnumpy
dtype
p49
(S'i8'
p50
I0
I1
tp51
Rp52
(I3
S'<'
p53
NNNI-1
I-1
I0
tp54
bS'\x02\x00\x00\x00\x00\x00\x00\x00'
p55
tp56
Rp57
sVis
p58
g48
(g52
S'\x01\x00\x00\x00\x00\x00\x00\x00'
p59
tp60
Rp61
sVbad
p62
g48
(g52
S'\x00\x00\x00\x00\x00\x00\x00\x00'
p63
tp64
Rp65
ssg6
g7
sS'dtype'
p66
cnumpy
int64
p67
sS'input'
p68
Vcontent
p69
sS'_tfidf'
p70
g0
(csklearn.feature_extraction.text
TfidfTransformer
p71
g2
Ntp72
Rp73
(dp74
S'smooth_idf'
p75
I01
sg6
g7
sS'_idf_diag'
p76
g0
(cscipy.sparse.csr
csr_matrix
p77
g2
Ntp78
Rp79
(dp80
S'format'
p81
S'csr'
p82
sS'_shape'
p83
(I3
I3
tp84
sS'indptr'
p85
cnumpy.core.multiarray
_reconstruct
p86
(cnumpy
ndarray
p87
(I0
tp88
S'b'
p89
tp90
Rp91
(I1
(I4
tp92
g49
(S'i4'
p93
I0
I1
tp94
Rp95
(I3
S'<'
p96
NNNI-1
I-1
I0
tp97
bI00
S'\x00\x00\x00\x00\x01\x00\x00\x00\x02\x00\x00\x00\x03\x00\x00\x00'
p98
tp99
bsS'_cs_matrix__has_sorted_indices'
p100
I01
sS'indices'
p101
g86
(g87
(I0
tp102
g89
tp103
Rp104
(I1
(I3
tp105
g95
I00
S'\x00\x00\x00\x00\x01\x00\x00\x00\x02\x00\x00\x00'
p106
tp107
bsS'maxprint'
p108
I50
sS'data'
p109
g86
(g87
(I0
tp110
g89
tp111
Rp112
(I1
(I3
tp113
g49
(S'f8'
p114
I0
I1
tp115
Rp116
(I3
S'<'
p117
NNNI-1
I-1
I0
tp118
bI00
S'\xe46M\x84X\x9a\xf4?\xe46M\x84X\x9a\xf4?\xe46M\x84X\x9a\xf4?'
p119
tp120
bsbsS'use_idf'
p121
I01
sS'sublinear_tf'
p122
I00
sS'norm'
p123
Vl2
p124
sbsS'strip_accents'
p125
Nsbtp126
a(S'clf'
p127
g0
(csklearn.linear_model.stochastic_gradient
SGDClassifier
p128
g2
Ntp129
Rp130
(dp131
S't_'
p132
F16.0
sS'n_jobs'
p133
I1
sS'shuffle'
p134
I01
sS'verbose'
p135
I0
sS'classes_'
p136
g86
(g87
(I0
tp137
g89
tp138
Rp139
(I1
(I2
tp140
g52
I00
S'\x00\x00\x00\x00\x00\x00\x00\x00\x01\x00\x00\x00\x00\x00\x00\x00'
p141
tp142
bsS'class_weight'
p143
NsS'fit_intercept'
p144
I01
sS'penalty'
p145
S'l2'
p146
sS'random_state'
p147
I42
sg6
g7
sS'loss_function'
p148
csklearn.linear_model.sgd_fast
Hinge
p149
(F1.0
tp150
Rp151
sS'C'
p152
F1.0
sS'n_iter'
p153
I5
sS'epsilon'
p154
F0.1
sS'learning_rate'
p155
S'optimal'
p156
sS'coef_'
p157
g86
(g87
(I0
tp158
g89
tp159
Rp160
(I1
(I1
I3
tp161
g116
I00
S'\xa1\x80\xb96\xed\x13\x18\xc0\xf7V*[>\xa5\xf5?\xf7V*[>\xa5\xf5?'
p162
tp163
bsS'alpha'
p164
F0.001
sS'intercept_'
p165
g86
(g87
(I0
tp166
g89
tp167
Rp168
(I1
(I1
tp169
g116
I00
S'`\x9e,\xf1V\x06]\xbf'
p170
tp171
bsS'_expanded_class_weight'
p172
g86
(g87
(I0
tp173
g89
tp174
Rp175
(I1
(I2
tp176
g116
I00
S'\x00\x00\x00\x00\x00\x00\xf0?\x00\x00\x00\x00\x00\x00\xf0?'
p177
tp178
bsS'warm_start'
p179
I00
sS'loss'
p180
S'hinge'
p181
sS'eta0'
p182
F0.0
sS'l1_ratio'
p183
F0.15
sS'average'
p184
I00
sS'power_t'
p185
F0.5
sbtp186
asb.